target datalayout = "e-m:e-p270:32:32-p271:32:32-p272:64:64-i64:64-f80:128-n8:16:32:64-S128"
target triple = "x86_64-pc-linux-gnu"

@.str = private unnamed_addr constant [6 x i8] c"%d,%d\00", align 1
@.str.1 = private unnamed_addr constant [3 x i8] c"%d\00", align 1
@.str.2 = private unnamed_addr constant [6 x i8] c"%d+%d\00", align 1
@.str.3 = private unnamed_addr constant [3 x i8] c"No\00", align 1

; Function Attrs: noinline nounwind uwtable
define dso_local i32 @main() #0 {
  %1 = alloca i32, align 4
  %2 = alloca i32, align 4
  %3 = alloca i32, align 4
  %4 = alloca i32, align 4
  %5 = alloca i32, align 4
  %6 = alloca i32, align 4
  %7 = alloca [100 x [100 x i32]], align 16
  %8 = alloca [100 x [2 x i32]], align 16
  %9 = alloca i32, align 4
  %10 = alloca i32, align 4
  %11 = alloca i32, align 4
  %12 = alloca i32, align 4
  store i32 0, i32* %1, align 4
  store i32 0, i32* %2, align 4
  %13 = call i32 (i8*, ...) @__isoc99_scanf(i8* getelementptr inbounds ([6 x i8], [6 x i8]* @.str, i64 0, i64 0), i32* %3, i32* %4)
  %14 = bitcast [100 x [100 x i32]]* %7 to i8*
  call void @llvm.memset.p0i8.i64(i8* align 16 %14, i8 0, i64 40000, i1 false)
  store i32 0, i32* %5, align 4
  br label %15

15:                                               ; preds = %36, %0
  %16 = load i32, i32* %5, align 4
  %17 = load i32, i32* %3, align 4
  %18 = icmp slt i32 %16, %17
  br i1 %18, label %19, label %39

19:                                               ; preds = %15
  store i32 0, i32* %6, align 4
  br label %20

20:                                               ; preds = %32, %19
  %21 = load i32, i32* %6, align 4
  %22 = load i32, i32* %4, align 4
  %23 = icmp slt i32 %21, %22
  br i1 %23, label %24, label %35

24:                                               ; preds = %20
  %25 = load i32, i32* %5, align 4
  %26 = sext i32 %25 to i64
  %27 = getelementptr inbounds [100 x [100 x i32]], [100 x [100 x i32]]* %7, i64 0, i64 %26
  %28 = load i32, i32* %6, align 4
  %29 = sext i32 %28 to i64
  %30 = getelementptr inbounds [100 x i32], [100 x i32]* %27, i64 0, i64 %29
  %31 = call i32 (i8*, ...) @__isoc99_scanf(i8* getelementptr inbounds ([3 x i8], [3 x i8]* @.str.1, i64 0, i64 0), i32* %30)
  br label %32

32:                                               ; preds = %24
  %33 = load i32, i32* %6, align 4
  %34 = add nsw i32 %33, 1
  store i32 %34, i32* %6, align 4
  br label %20

35:                                               ; preds = %20
  br label %36

36:                                               ; preds = %35
  %37 = load i32, i32* %5, align 4
  %38 = add nsw i32 %37, 1
  store i32 %38, i32* %5, align 4
  br label %15

39:                                               ; preds = %15
  %40 = bitcast [100 x [2 x i32]]* %8 to i8*
  call void @llvm.memset.p0i8.i64(i8* align 16 %40, i8 0, i64 800, i1 false)
  store i32 0, i32* %9, align 4
  store i32 0, i32* %10, align 4
  store i32 0, i32* %5, align 4
  br label %41

41:                                               ; preds = %93, %39
  %42 = load i32, i32* %5, align 4
  %43 = load i32, i32* %3, align 4
  %44 = icmp slt i32 %42, %43
  br i1 %44, label %45, label %96

45:                                               ; preds = %41
  store i32 0, i32* %11, align 4
  store i32 0, i32* %6, align 4
  br label %46

46:                                               ; preds = %87, %45
  %47 = load i32, i32* %6, align 4
  %48 = load i32, i32* %4, align 4
  %49 = icmp slt i32 %47, %48
  br i1 %49, label %50, label %90

50:                                               ; preds = %46
  %51 = load i32, i32* %5, align 4
  %52 = sext i32 %51 to i64
  %53 = getelementptr inbounds [100 x [100 x i32]], [100 x [100 x i32]]* %7, i64 0, i64 %52
  %54 = load i32, i32* %6, align 4
  %55 = sext i32 %54 to i64
  %56 = getelementptr inbounds [100 x i32], [100 x i32]* %53, i64 0, i64 %55
  %57 = load i32, i32* %56, align 4
  %58 = load i32, i32* %11, align 4
  %59 = icmp sgt i32 %57, %58
  br i1 %59, label %60, label %86

60:                                               ; preds = %50
  %61 = load i32, i32* %5, align 4
  %62 = sext i32 %61 to i64
  %63 = getelementptr inbounds [100 x [100 x i32]], [100 x [100 x i32]]* %7, i64 0, i64 %62
  %64 = load i32, i32* %6, align 4
  %65 = sext i32 %64 to i64
  %66 = getelementptr inbounds [100 x i32], [100 x i32]* %63, i64 0, i64 %65
  %67 = load i32, i32* %66, align 4
  store i32 %67, i32* %11, align 4
  %68 = load i32, i32* %5, align 4
  %69 = load i32, i32* %9, align 4
  %70 = sext i32 %69 to i64
  %71 = getelementptr inbounds [100 x [2 x i32]], [100 x [2 x i32]]* %8, i64 0, i64 %70
  %72 = load i32, i32* %10, align 4
  %73 = sext i32 %72 to i64
  %74 = getelementptr inbounds [2 x i32], [2 x i32]* %71, i64 0, i64 %73
  store i32 %68, i32* %74, align 4
  %75 = load i32, i32* %10, align 4
  %76 = add nsw i32 %75, 1
  store i32 %76, i32* %10, align 4
  %77 = load i32, i32* %6, align 4
  %78 = load i32, i32* %9, align 4
  %79 = sext i32 %78 to i64
  %80 = getelementptr inbounds [100 x [2 x i32]], [100 x [2 x i32]]* %8, i64 0, i64 %79
  %81 = load i32, i32* %10, align 4
  %82 = sext i32 %81 to i64
  %83 = getelementptr inbounds [2 x i32], [2 x i32]* %80, i64 0, i64 %82
  store i32 %77, i32* %83, align 4
  %84 = load i32, i32* %10, align 4
  %85 = add nsw i32 %84, -1
  store i32 %85, i32* %10, align 4
  br label %86

86:                                               ; preds = %60, %50
  br label %87

87:                                               ; preds = %86
  %88 = load i32, i32* %6, align 4
  %89 = add nsw i32 %88, 1
  store i32 %89, i32* %6, align 4
  br label %46

90:                                               ; preds = %46
  %91 = load i32, i32* %9, align 4
  %92 = add nsw i32 %91, 1
  store i32 %92, i32* %9, align 4
  br label %93

93:                                               ; preds = %90
  %94 = load i32, i32* %5, align 4
  %95 = add nsw i32 %94, 1
  store i32 %95, i32* %5, align 4
  br label %41

96:                                               ; preds = %41
  store i32 0, i32* %10, align 4
  store i32 0, i32* %5, align 4
  br label %97

97:                                               ; preds = %149, %96
  %98 = load i32, i32* %5, align 4
  %99 = load i32, i32* %4, align 4
  %100 = icmp slt i32 %98, %99
  br i1 %100, label %101, label %152

101:                                              ; preds = %97
  store i32 10000, i32* %12, align 4
  store i32 0, i32* %6, align 4
  br label %102

102:                                              ; preds = %143, %101
  %103 = load i32, i32* %6, align 4
  %104 = load i32, i32* %3, align 4
  %105 = icmp slt i32 %103, %104
  br i1 %105, label %106, label %146

106:                                              ; preds = %102
  %107 = load i32, i32* %6, align 4
  %108 = sext i32 %107 to i64
  %109 = getelementptr inbounds [100 x [100 x i32]], [100 x [100 x i32]]* %7, i64 0, i64 %108
  %110 = load i32, i32* %5, align 4
  %111 = sext i32 %110 to i64
  %112 = getelementptr inbounds [100 x i32], [100 x i32]* %109, i64 0, i64 %111
  %113 = load i32, i32* %112, align 4
  %114 = load i32, i32* %12, align 4
  %115 = icmp slt i32 %113, %114
  br i1 %115, label %116, label %142

116:                                              ; preds = %106
  %117 = load i32, i32* %5, align 4
  %118 = sext i32 %117 to i64
  %119 = getelementptr inbounds [100 x [100 x i32]], [100 x [100 x i32]]* %7, i64 0, i64 %118
  %120 = load i32, i32* %6, align 4
  %121 = sext i32 %120 to i64
  %122 = getelementptr inbounds [100 x i32], [100 x i32]* %119, i64 0, i64 %121
  %123 = load i32, i32* %122, align 4
  store i32 %123, i32* %12, align 4
  %124 = load i32, i32* %6, align 4
  %125 = load i32, i32* %9, align 4
  %126 = sext i32 %125 to i64
  %127 = getelementptr inbounds [100 x [2 x i32]], [100 x [2 x i32]]* %8, i64 0, i64 %126
  %128 = load i32, i32* %10, align 4
  %129 = sext i32 %128 to i64
  %130 = getelementptr inbounds [2 x i32], [2 x i32]* %127, i64 0, i64 %129
  store i32 %124, i32* %130, align 4
  %131 = load i32, i32* %10, align 4
  %132 = add nsw i32 %131, 1
  store i32 %132, i32* %10, align 4
  %133 = load i32, i32* %5, align 4
  %134 = load i32, i32* %9, align 4
  %135 = sext i32 %134 to i64
  %136 = getelementptr inbounds [100 x [2 x i32]], [100 x [2 x i32]]* %8, i64 0, i64 %135
  %137 = load i32, i32* %10, align 4
  %138 = sext i32 %137 to i64
  %139 = getelementptr inbounds [2 x i32], [2 x i32]* %136, i64 0, i64 %138
  store i32 %133, i32* %139, align 4
  %140 = load i32, i32* %10, align 4
  %141 = add nsw i32 %140, -1
  store i32 %141, i32* %10, align 4
  br label %142

142:                                              ; preds = %116, %106
  br label %143

143:                                              ; preds = %142
  %144 = load i32, i32* %6, align 4
  %145 = add nsw i32 %144, 1
  store i32 %145, i32* %6, align 4
  br label %102

146:                                              ; preds = %102
  %147 = load i32, i32* %9, align 4
  %148 = add nsw i32 %147, 1
  store i32 %148, i32* %9, align 4
  br label %149

149:                                              ; preds = %146
  %150 = load i32, i32* %5, align 4
  %151 = add nsw i32 %150, 1
  store i32 %151, i32* %5, align 4
  br label %97

152:                                              ; preds = %97
  store i32 0, i32* %10, align 4
  store i32 0, i32* %5, align 4
  br label %153

153:                                              ; preds = %205, %152
  %154 = load i32, i32* %5, align 4
  %155 = load i32, i32* %9, align 4
  %156 = icmp slt i32 %154, %155
  br i1 %156, label %157, label %208

157:                                              ; preds = %153
  store i32 1, i32* %6, align 4
  br label %158

158:                                              ; preds = %201, %157
  %159 = load i32, i32* %6, align 4
  %160 = load i32, i32* %9, align 4
  %161 = icmp sle i32 %159, %160
  br i1 %161, label %162, label %204

162:                                              ; preds = %158
  %163 = load i32, i32* %5, align 4
  %164 = sext i32 %163 to i64
  %165 = getelementptr inbounds [100 x [2 x i32]], [100 x [2 x i32]]* %8, i64 0, i64 %164
  %166 = getelementptr inbounds [2 x i32], [2 x i32]* %165, i64 0, i64 0
  %167 = load i32, i32* %166, align 8
  %168 = load i32, i32* %6, align 4
  %169 = sext i32 %168 to i64
  %170 = getelementptr inbounds [100 x [2 x i32]], [100 x [2 x i32]]* %8, i64 0, i64 %169
  %171 = getelementptr inbounds [2 x i32], [2 x i32]* %170, i64 0, i64 0
  %172 = load i32, i32* %171, align 8
  %173 = icmp eq i32 %167, %172
  br i1 %173, label %174, label %200

174:                                              ; preds = %162
  %175 = load i32, i32* %5, align 4
  %176 = sext i32 %175 to i64
  %177 = getelementptr inbounds [100 x [2 x i32]], [100 x [2 x i32]]* %8, i64 0, i64 %176
  %178 = getelementptr inbounds [2 x i32], [2 x i32]* %177, i64 0, i64 1
  %179 = load i32, i32* %178, align 4
  %180 = load i32, i32* %6, align 4
  %181 = sext i32 %180 to i64
  %182 = getelementptr inbounds [100 x [2 x i32]], [100 x [2 x i32]]* %8, i64 0, i64 %181
  %183 = getelementptr inbounds [2 x i32], [2 x i32]* %182, i64 0, i64 1
  %184 = load i32, i32* %183, align 4
  %185 = icmp eq i32 %179, %184
  br i1 %185, label %186, label %200

186:                                              ; preds = %174
  %187 = load i32, i32* %5, align 4
  %188 = sext i32 %187 to i64
  %189 = getelementptr inbounds [100 x [2 x i32]], [100 x [2 x i32]]* %8, i64 0, i64 %188
  %190 = getelementptr inbounds [2 x i32], [2 x i32]* %189, i64 0, i64 0
  %191 = load i32, i32* %190, align 8
  %192 = load i32, i32* %5, align 4
  %193 = sext i32 %192 to i64
  %194 = getelementptr inbounds [100 x [2 x i32]], [100 x [2 x i32]]* %8, i64 0, i64 %193
  %195 = getelementptr inbounds [2 x i32], [2 x i32]* %194, i64 0, i64 1
  %196 = load i32, i32* %195, align 4
  %197 = call i32 (i8*, ...) @printf(i8* getelementptr inbounds ([6 x i8], [6 x i8]* @.str.2, i64 0, i64 0), i32 %191, i32 %196)
  %198 = load i32, i32* %2, align 4
  %199 = add nsw i32 %198, 1
  store i32 %199, i32* %2, align 4
  br label %204

200:                                              ; preds = %174, %162
  br label %201

201:                                              ; preds = %200
  %202 = load i32, i32* %6, align 4
  %203 = add nsw i32 %202, 1
  store i32 %203, i32* %6, align 4
  br label %158

204:                                              ; preds = %186, %158
  br label %208

205:                                              ; No predecessors!
  %206 = load i32, i32* %5, align 4
  %207 = add nsw i32 %206, 1
  store i32 %207, i32* %5, align 4
  br label %153

208:                                              ; preds = %204, %153
  %209 = load i32, i32* %2, align 4
  %210 = icmp eq i32 %209, 0
  br i1 %210, label %211, label %213

211:                                              ; preds = %208
  %212 = call i32 (i8*, ...) @printf(i8* getelementptr inbounds ([3 x i8], [3 x i8]* @.str.3, i64 0, i64 0))
  br label %213

213:                                              ; preds = %211, %208
  ret i32 0
}